; Function Attrs: mustprogress uwtable
define dso_local void @_ZN3net14QuicConnection13SendPathCloseEh(ptr noundef nonnull align 8 dereferenceable(3372) %this, i8 noundef zeroext %path_id) unnamed_addr #0 align 2 personality ptr @__gxx_personality_v0 {
entry:
  %ack_bundler = alloca %"class.net::QuicConnection::ScopedPacketBundler", align 8
  %ref.tmp = alloca %"struct.net::QuicFrame", align 8
  call void @_ZN3net14QuicConnection19ScopedPacketBundlerC2EPS0_NS0_11AckBundlingE(ptr noundef nonnull align 8 dereferenceable(9) %ack_bundler, ptr noundef nonnull %this, i32 noundef 2)
  %packet_generator_ = getelementptr inbounds i8, ptr %this, i64 2408
  %call = invoke noalias noundef nonnull dereferenceable(1) ptr @_Znwm(i64 noundef 1) #23
          to label %invoke.cont unwind label %lpad

invoke.cont:                                      ; preds = %entry
  invoke void @_ZN3net18QuicPathCloseFrameC1Eh(ptr noundef nonnull align 1 dereferenceable(1) %call, i8 noundef zeroext %path_id)
          to label %invoke.cont3 unwind label %lpad2

invoke.cont3:                                     ; preds = %invoke.cont
  invoke void @_ZN3net9QuicFrameC1EPNS_18QuicPathCloseFrameE(ptr noundef nonnull align 8 dereferenceable(16) %ref.tmp, ptr noundef nonnull %call)
          to label %invoke.cont4 unwind label %lpad

invoke.cont4:                                     ; preds = %invoke.cont3
  invoke void @_ZN3net19QuicPacketGenerator15AddControlFrameERKNS_9QuicFrameE(ptr noundef nonnull align 8 dereferenceable(472) %packet_generator_, ptr noundef nonnull align 8 dereferenceable(16) %ref.tmp)
          to label %invoke.cont5 unwind label %lpad

invoke.cont5:                                     ; preds = %invoke.cont4
  %framer_.i = getelementptr inbounds i8, ptr %this, i64 32
  invoke void @_ZN3net10QuicFramer12OnPathClosedEh(ptr noundef nonnull align 8 dereferenceable(408) %framer_.i, i8 noundef zeroext %path_id)
          to label %invoke.cont6 unwind label %lpad

invoke.cont6:                                     ; preds = %invoke.cont5
  %0 = load ptr, ptr %ack_bundler, align 8
  %cmp.i = icmp eq ptr %0, null
  br i1 %cmp.i, label %_ZN3net14QuicConnection19ScopedPacketBundlerD2Ev.exit, label %if.end.i

if.end.i:                                         ; preds = %invoke.cont6
  %already_in_batch_mode_.i = getelementptr inbounds i8, ptr %ack_bundler, i64 8
  %1 = load i8, ptr %already_in_batch_mode_.i, align 8
  %2 = and i8 %1, 1
  %tobool.not.i = icmp eq i8 %2, 0
  br i1 %tobool.not.i, label %if.then2.i, label %_ZN3net14QuicConnection19ScopedPacketBundlerD2Ev.exit

if.then2.i:                                       ; preds = %if.end.i
  %packet_generator_.i = getelementptr inbounds i8, ptr %0, i64 2408
  invoke void @_ZN3net19QuicPacketGenerator21FinishBatchOperationsEv(ptr noundef nonnull align 8 dereferenceable(472) %packet_generator_.i)
          to label %invoke.cont.i unwind label %terminate.lpad.i

invoke.cont.i:                                    ; preds = %if.then2.i
  %queued_packets_.i.i = getelementptr inbounds i8, ptr %0, i64 816
  %3 = load ptr, ptr %queued_packets_.i.i, align 8
  %cmp.i.i.i = icmp eq ptr %3, %queued_packets_.i.i
  br i1 %cmp.i.i.i, label %land.lhs.true.i.i, label %_ZN3net14QuicConnection19ScopedPacketBundlerD2Ev.exit

land.lhs.true.i.i:                                ; preds = %invoke.cont.i
  %sent_packet_manager_.i.i = getelementptr inbounds i8, ptr %0, i64 3192
  %4 = load ptr, ptr %sent_packet_manager_.i.i, align 8
  %vtable.i.i = load ptr, ptr %4, align 8
  %vfn.i.i = getelementptr inbounds i8, ptr %vtable.i.i, i64 88
  %5 = load ptr, ptr %vfn.i.i, align 8
  %call3.i1.i = invoke noundef zeroext i1 %5(ptr noundef nonnull align 8 dereferenceable(8) %4)
          to label %call3.i.noexc.i unwind label %terminate.lpad.i

call3.i.noexc.i:                                  ; preds = %land.lhs.true.i.i
  br i1 %call3.i1.i, label %_ZN3net14QuicConnection19ScopedPacketBundlerD2Ev.exit, label %land.lhs.true4.i.i

land.lhs.true4.i.i:                               ; preds = %call3.i.noexc.i
  %visitor_.i.i = getelementptr inbounds i8, ptr %0, i64 2392
  %6 = load ptr, ptr %visitor_.i.i, align 8
  %vtable5.i.i = load ptr, ptr %6, align 8
  %vfn6.i.i = getelementptr inbounds i8, ptr %vtable5.i.i, i64 120
  %7 = load ptr, ptr %vfn6.i.i, align 8
  %call7.i2.i = invoke noundef zeroext i1 %7(ptr noundef nonnull align 8 dereferenceable(8) %6)
          to label %call7.i.noexc.i unwind label %terminate.lpad.i

call7.i.noexc.i:                                  ; preds = %land.lhs.true4.i.i
  br i1 %call7.i2.i, label %_ZN3net14QuicConnection19ScopedPacketBundlerD2Ev.exit, label %if.then.i.i

if.then.i.i:                                      ; preds = %call7.i.noexc.i
  %8 = load ptr, ptr %sent_packet_manager_.i.i, align 8
  %vtable10.i.i = load ptr, ptr %8, align 8
  %vfn11.i.i = getelementptr inbounds i8, ptr %vtable10.i.i, i64 304
  %9 = load ptr, ptr %vfn11.i.i, align 8
  invoke void %9(ptr noundef nonnull align 8 dereferenceable(8) %8)
          to label %_ZN3net14QuicConnection19ScopedPacketBundlerD2Ev.exit unwind label %terminate.lpad.i

terminate.lpad.i:                                 ; preds = %if.then.i.i, %land.lhs.true4.i.i, %land.lhs.true.i.i, %if.then2.i
  %10 = landingpad { ptr, i32 }
          catch ptr null
  %11 = extractvalue { ptr, i32 } %10, 0
  call void @__clang_call_terminate(ptr %11) #25
  unreachable

_ZN3net14QuicConnection19ScopedPacketBundlerD2Ev.exit: ; preds = %invoke.cont6, %if.end.i, %invoke.cont.i, %call3.i.noexc.i, %call7.i.noexc.i, %if.then.i.i
  ret void

lpad:                                             ; preds = %invoke.cont5, %invoke.cont4, %invoke.cont3, %entry
  %12 = landingpad { ptr, i32 }
          cleanup
  br label %ehcleanup

lpad2:                                            ; preds = %invoke.cont
  %13 = landingpad { ptr, i32 }
          cleanup
  tail call void @_ZdlPv(ptr noundef nonnull %call) #24
  br label %ehcleanup

ehcleanup:                                        ; preds = %lpad2, %lpad
  %.pn = phi { ptr, i32 } [ %12, %lpad ], [ %13, %lpad2 ]
  call void @_ZN3net14QuicConnection19ScopedPacketBundlerD2Ev(ptr noundef nonnull align 8 dereferenceable(9) %ack_bundler) #22
  resume { ptr, i32 } %.pn
}